target datalayout = "e-m:e-p270:32:32-p271:32:32-p272:64:64-i64:64-i128:128-f80:128-n8:16:32:64-S128"
target triple = "x86_64-pc-linux-gnu"

%struct.AVFilterContext = type { ptr, ptr, ptr, ptr, ptr, i32, ptr, ptr, i32, ptr, ptr, i32, i32, ptr, ptr, ptr, ptr, i32, ptr, i32, i32 }
%struct.TMidEqualizerContext = type { ptr, i32, i32, float, [4 x i32], [4 x i32], i32, i32, i32, i32, i32, i32, i32, i32, [127 x float], [4 x [256 x ptr]], [4 x ptr], ptr, ptr, ptr }

; Function Attrs: cold nounwind optsize uwtable
define internal void @uninit(ptr noundef %0) #0 {
  %2 = alloca ptr, align 8
  %3 = alloca ptr, align 8
  %4 = alloca i32, align 4
  store ptr %0, ptr %2, align 8, !tbaa !4
  call void @llvm.lifetime.start.p0(i64 8, ptr %3) #8
  %5 = load ptr, ptr %2, align 8, !tbaa !4
  %6 = getelementptr inbounds nuw %struct.AVFilterContext, ptr %5, i32 0, i32 9
  %7 = load ptr, ptr %6, align 8, !tbaa !9
  store ptr %7, ptr %3, align 8, !tbaa !22
  %8 = load ptr, ptr %2, align 8, !tbaa !4
  %9 = load ptr, ptr %3, align 8, !tbaa !22
  %10 = getelementptr inbounds nuw %struct.TMidEqualizerContext, ptr %9, i32 0, i32 6
  %11 = load i32, ptr %10, align 4, !tbaa !24
  call void @free_histograms(ptr noundef %8, i32 noundef 0, i32 noundef %11)
  %12 = load ptr, ptr %2, align 8, !tbaa !4
  %13 = load ptr, ptr %3, align 8, !tbaa !22
  %14 = getelementptr inbounds nuw %struct.TMidEqualizerContext, ptr %13, i32 0, i32 6
  %15 = load i32, ptr %14, align 4, !tbaa !24
  call void @free_histograms(ptr noundef %12, i32 noundef 1, i32 noundef %15)
  %16 = load ptr, ptr %2, align 8, !tbaa !4
  %17 = load ptr, ptr %3, align 8, !tbaa !22
  %18 = getelementptr inbounds nuw %struct.TMidEqualizerContext, ptr %17, i32 0, i32 6
  %19 = load i32, ptr %18, align 4, !tbaa !24
  call void @free_histograms(ptr noundef %16, i32 noundef 2, i32 noundef %19)
  %20 = load ptr, ptr %2, align 8, !tbaa !4
  %21 = load ptr, ptr %3, align 8, !tbaa !22
  %22 = getelementptr inbounds nuw %struct.TMidEqualizerContext, ptr %21, i32 0, i32 6
  %23 = load i32, ptr %22, align 4, !tbaa !24
  call void @free_histograms(ptr noundef %20, i32 noundef 3, i32 noundef %23)
  call void @llvm.lifetime.start.p0(i64 4, ptr %4) #8
  store i32 0, ptr %4, align 4, !tbaa !28
  br label %24

24:                                               ; preds = %45, %1
  %25 = load i32, ptr %4, align 4, !tbaa !28
  %26 = load ptr, ptr %3, align 8, !tbaa !22
  %27 = getelementptr inbounds nuw %struct.TMidEqualizerContext, ptr %26, i32 0, i32 6
  %28 = load i32, ptr %27, align 4, !tbaa !24
  %29 = icmp slt i32 %25, %28
  br i1 %29, label %30, label %35

30:                                               ; preds = %24
  %31 = load ptr, ptr %3, align 8, !tbaa !22
  %32 = getelementptr inbounds nuw %struct.TMidEqualizerContext, ptr %31, i32 0, i32 17
  %33 = load ptr, ptr %32, align 8, !tbaa !29
  %34 = icmp ne ptr %33, null
  br label %35

35:                                               ; preds = %30, %24
  %36 = phi i1 [ false, %24 ], [ %34, %30 ]
  br i1 %36, label %38, label %37

37:                                               ; preds = %35
  call void @llvm.lifetime.end.p0(i64 4, ptr %4) #8
  br label %48

38:                                               ; preds = %35
  %39 = load ptr, ptr %3, align 8, !tbaa !22
  %40 = getelementptr inbounds nuw %struct.TMidEqualizerContext, ptr %39, i32 0, i32 17
  %41 = load ptr, ptr %40, align 8, !tbaa !29
  %42 = load i32, ptr %4, align 4, !tbaa !28
  %43 = sext i32 %42 to i64
  %44 = getelementptr inbounds ptr, ptr %41, i64 %43
  call void @av_frame_free(ptr noundef %44)
  br label %45

45:                                               ; preds = %38
  %46 = load i32, ptr %4, align 4, !tbaa !28
  %47 = add nsw i32 %46, 1
  store i32 %47, ptr %4, align 4, !tbaa !28
  br label %24, !llvm.loop !30

48:                                               ; preds = %37
  %49 = load ptr, ptr %3, align 8, !tbaa !22
  %50 = getelementptr inbounds nuw %struct.TMidEqualizerContext, ptr %49, i32 0, i32 17
  call void @av_freep(ptr noundef %50)
  call void @llvm.lifetime.end.p0(i64 8, ptr %3) #8
  ret void
}