; Function Attrs: cold nounwind optsize uwtable
define internal void @uninit(ptr noundef readonly captures(none) %0) #0 {
  %2 = getelementptr inbounds nuw i8, ptr %0, i64 72
  %3 = load ptr, ptr %2, align 8, !tbaa !4
  %4 = getelementptr inbounds nuw i8, ptr %3, i64 52
  %5 = load i32, ptr %4, align 4, !tbaa !20
  tail call fastcc void @free_histograms(ptr %3, i32 noundef 0, i32 noundef %5)
  %6 = load i32, ptr %4, align 4, !tbaa !20
  %.val16 = load ptr, ptr %2, align 8, !tbaa !4
  tail call fastcc void @free_histograms(ptr %.val16, i32 noundef 1, i32 noundef %6)
  %7 = load i32, ptr %4, align 4, !tbaa !20
  %.val17 = load ptr, ptr %2, align 8, !tbaa !4
  tail call fastcc void @free_histograms(ptr %.val17, i32 noundef 2, i32 noundef %7)
  %8 = load i32, ptr %4, align 4, !tbaa !20
  %.val18 = load ptr, ptr %2, align 8, !tbaa !4
  tail call fastcc void @free_histograms(ptr %.val18, i32 noundef 3, i32 noundef %8)
  %9 = getelementptr inbounds nuw i8, ptr %3, i64 8816
  %10 = load i32, ptr %4, align 4, !tbaa !20
  %11 = icmp sgt i32 %10, 0
  br i1 %11, label %.lr.ph, label %.critedge

.lr.ph:                                           ; preds = %1, %13
  %indvars.iv = phi i64 [ %indvars.iv.next, %13 ], [ 0, %1 ]
  %12 = load ptr, ptr %9, align 8, !tbaa !24
  %.not = icmp eq ptr %12, null
  br i1 %.not, label %.critedge, label %13

.critedge:                                        ; preds = %.lr.ph, %13, %1
  tail call void @av_freep(ptr noundef nonnull %9) #8
  ret void

13:                                               ; preds = %.lr.ph
  %14 = getelementptr inbounds nuw ptr, ptr %12, i64 %indvars.iv
  tail call void @av_frame_free(ptr noundef nonnull %14) #8
  %indvars.iv.next = add nuw nsw i64 %indvars.iv, 1
  %15 = load i32, ptr %4, align 4, !tbaa !20
  %16 = sext i32 %15 to i64
  %17 = icmp slt i64 %indvars.iv.next, %16
  br i1 %17, label %.lr.ph, label %.critedge, !llvm.loop !25
}